target datalayout = "e-m:e-p270:32:32-p271:32:32-p272:64:64-i64:64-i128:128-f80:128-n8:16:32:64-S128"
target triple = "x86_64-pc-linux-gnu"

%struct._fcgi_request = type { i32, i32, i32, i32, i32, i32, i32, i32, i32, ptr, ptr, [8192 x i8], [16 x i8], %struct._fcgi_req_hook, i32, %struct._fcgi_hash }
%struct._fcgi_req_hook = type { ptr, ptr, ptr }
%struct._fcgi_hash = type { [128 x ptr], ptr, ptr, ptr }
%struct._fcgi_header = type { i8, i8, i8, i8, i8, i8, i8, i8 }
%struct._fcgi_end_request_rec = type { %struct._fcgi_header, %struct._fcgi_end_request }
%struct._fcgi_end_request = type { i8, i8, i8, i8, i8, [3 x i8] }

; Function Attrs: nounwind uwtable
define internal i64 @safe_write(ptr noundef %0, ptr noundef %1, i64 noundef %2) #0 {
  %4 = alloca i64, align 8
  %5 = alloca ptr, align 8
  %6 = alloca ptr, align 8
  %7 = alloca i64, align 8
  %8 = alloca i32, align 4
  %9 = alloca i64, align 8
  store ptr %0, ptr %5, align 8
  store ptr %1, ptr %6, align 8
  store i64 %2, ptr %7, align 8
  store i64 0, ptr %9, align 8
  br label %10

10:                                               ; preds = %46, %3
  %11 = call ptr @__errno_location() #14
  store i32 0, ptr %11, align 4
  %12 = load ptr, ptr %5, align 8
  %13 = getelementptr inbounds %struct._fcgi_request, ptr %12, i32 0, i32 2
  %14 = load i32, ptr %13, align 8
  %15 = load ptr, ptr %6, align 8
  %16 = load i64, ptr %9, align 8
  %17 = getelementptr inbounds i8, ptr %15, i64 %16
  %18 = load i64, ptr %7, align 8
  %19 = load i64, ptr %9, align 8
  %20 = sub i64 %18, %19
  %21 = call i64 @write(i32 noundef %14, ptr noundef %17, i64 noundef %20)
  %22 = trunc i64 %21 to i32
  store i32 %22, ptr %8, align 4
  %23 = load i32, ptr %8, align 4
  %24 = icmp sgt i32 %23, 0
  br i1 %24, label %25, label %30

25:                                               ; preds = %10
  %26 = load i32, ptr %8, align 4
  %27 = sext i32 %26 to i64
  %28 = load i64, ptr %9, align 8
  %29 = add i64 %28, %27
  store i64 %29, ptr %9, align 8
  br label %45

30:                                               ; preds = %10
  %31 = load i32, ptr %8, align 4
  %32 = icmp sle i32 %31, 0
  br i1 %32, label %33, label %44

33:                                               ; preds = %30
  %34 = call ptr @__errno_location() #14
  %35 = load i32, ptr %34, align 4
  %36 = icmp ne i32 %35, 0
  br i1 %36, label %37, label %44

37:                                               ; preds = %33
  %38 = call ptr @__errno_location() #14
  %39 = load i32, ptr %38, align 4
  %40 = icmp ne i32 %39, 4
  br i1 %40, label %41, label %44

41:                                               ; preds = %37
  %42 = load i32, ptr %8, align 4
  %43 = sext i32 %42 to i64
  store i64 %43, ptr %4, align 8
  br label %52

44:                                               ; preds = %37, %33, %30
  br label %45

45:                                               ; preds = %44, %25
  br label %46

46:                                               ; preds = %45
  %47 = load i64, ptr %9, align 8
  %48 = load i64, ptr %7, align 8
  %49 = icmp ne i64 %47, %48
  br i1 %49, label %10, label %50

50:                                               ; preds = %46
  %51 = load i64, ptr %9, align 8
  store i64 %51, ptr %4, align 8
  br label %52

52:                                               ; preds = %50, %41
  %53 = load i64, ptr %4, align 8
  ret i64 %53
}

; Function Attrs: nounwind uwtable
define internal i32 @fcgi_make_header(ptr noundef %0, i32 noundef %1, i32 noundef %2, i32 noundef %3) #0 {
  %5 = alloca ptr, align 8
  %6 = alloca i32, align 4
  %7 = alloca i32, align 4
  %8 = alloca i32, align 4
  %9 = alloca i32, align 4
  store ptr %0, ptr %5, align 8
  store i32 %1, ptr %6, align 4
  store i32 %2, ptr %7, align 4
  store i32 %3, ptr %8, align 4
  %10 = load i32, ptr %8, align 4
  %11 = add nsw i32 %10, 7
  %12 = and i32 %11, -8
  %13 = load i32, ptr %8, align 4
  %14 = sub nsw i32 %12, %13
  store i32 %14, ptr %9, align 4
  %15 = load i32, ptr %8, align 4
  %16 = and i32 %15, 255
  %17 = trunc i32 %16 to i8
  %18 = load ptr, ptr %5, align 8
  %19 = getelementptr inbounds %struct._fcgi_header, ptr %18, i32 0, i32 5
  store i8 %17, ptr %19, align 1
  %20 = load i32, ptr %8, align 4
  %21 = ashr i32 %20, 8
  %22 = and i32 %21, 255
  %23 = trunc i32 %22 to i8
  %24 = load ptr, ptr %5, align 8
  %25 = getelementptr inbounds %struct._fcgi_header, ptr %24, i32 0, i32 4
  store i8 %23, ptr %25, align 1
  %26 = load i32, ptr %9, align 4
  %27 = trunc i32 %26 to i8
  %28 = load ptr, ptr %5, align 8
  %29 = getelementptr inbounds %struct._fcgi_header, ptr %28, i32 0, i32 6
  store i8 %27, ptr %29, align 1
  %30 = load i32, ptr %7, align 4
  %31 = and i32 %30, 255
  %32 = trunc i32 %31 to i8
  %33 = load ptr, ptr %5, align 8
  %34 = getelementptr inbounds %struct._fcgi_header, ptr %33, i32 0, i32 3
  store i8 %32, ptr %34, align 1
  %35 = load i32, ptr %7, align 4
  %36 = ashr i32 %35, 8
  %37 = and i32 %36, 255
  %38 = trunc i32 %37 to i8
  %39 = load ptr, ptr %5, align 8
  %40 = getelementptr inbounds %struct._fcgi_header, ptr %39, i32 0, i32 2
  store i8 %38, ptr %40, align 1
  %41 = load ptr, ptr %5, align 8
  %42 = getelementptr inbounds %struct._fcgi_header, ptr %41, i32 0, i32 7
  store i8 0, ptr %42, align 1
  %43 = load i32, ptr %6, align 4
  %44 = trunc i32 %43 to i8
  %45 = load ptr, ptr %5, align 8
  %46 = getelementptr inbounds %struct._fcgi_header, ptr %45, i32 0, i32 1
  store i8 %44, ptr %46, align 1
  %47 = load ptr, ptr %5, align 8
  %48 = getelementptr inbounds %struct._fcgi_header, ptr %47, i32 0, i32 0
  store i8 1, ptr %48, align 1
  %49 = load i32, ptr %9, align 4
  %50 = icmp ne i32 %49, 0
  br i1 %50, label %51, label %59

51:                                               ; preds = %4
  %52 = load ptr, ptr %5, align 8
  %53 = getelementptr inbounds i8, ptr %52, i64 8
  %54 = load i32, ptr %8, align 4
  %55 = sext i32 %54 to i64
  %56 = getelementptr inbounds i8, ptr %53, i64 %55
  %57 = load i32, ptr %9, align 4
  %58 = sext i32 %57 to i64
  call void @llvm.memset.p0.i64(ptr align 1 %56, i8 0, i64 %58, i1 false)
  br label %59

59:                                               ; preds = %51, %4
  %60 = load i32, ptr %9, align 4
  ret i32 %60
}

; Function Attrs: nounwind uwtable
define internal void @close_packet(ptr noundef %0) #0 {
  %2 = alloca ptr, align 8
  %3 = alloca i32, align 4
  store ptr %0, ptr %2, align 8
  %4 = load ptr, ptr %2, align 8
  %5 = getelementptr inbounds %struct._fcgi_request, ptr %4, i32 0, i32 9
  %6 = load ptr, ptr %5, align 8
  %7 = icmp ne ptr %6, null
  br i1 %7, label %8, label %41

8:                                                ; preds = %1
  %9 = load ptr, ptr %2, align 8
  %10 = getelementptr inbounds %struct._fcgi_request, ptr %9, i32 0, i32 10
  %11 = load ptr, ptr %10, align 8
  %12 = load ptr, ptr %2, align 8
  %13 = getelementptr inbounds %struct._fcgi_request, ptr %12, i32 0, i32 9
  %14 = load ptr, ptr %13, align 8
  %15 = getelementptr inbounds i8, ptr %14, i64 8
  %16 = ptrtoint ptr %11 to i64
  %17 = ptrtoint ptr %15 to i64
  %18 = sub i64 %16, %17
  %19 = trunc i64 %18 to i32
  store i32 %19, ptr %3, align 4
  %20 = load ptr, ptr %2, align 8
  %21 = getelementptr inbounds %struct._fcgi_request, ptr %20, i32 0, i32 9
  %22 = load ptr, ptr %21, align 8
  %23 = load ptr, ptr %2, align 8
  %24 = getelementptr inbounds %struct._fcgi_request, ptr %23, i32 0, i32 9
  %25 = load ptr, ptr %24, align 8
  %26 = getelementptr inbounds %struct._fcgi_header, ptr %25, i32 0, i32 1
  %27 = load i8, ptr %26, align 1
  %28 = zext i8 %27 to i32
  %29 = load ptr, ptr %2, align 8
  %30 = getelementptr inbounds %struct._fcgi_request, ptr %29, i32 0, i32 3
  %31 = load i32, ptr %30, align 4
  %32 = load i32, ptr %3, align 4
  %33 = call i32 @fcgi_make_header(ptr noundef %22, i32 noundef %28, i32 noundef %31, i32 noundef %32)
  %34 = load ptr, ptr %2, align 8
  %35 = getelementptr inbounds %struct._fcgi_request, ptr %34, i32 0, i32 10
  %36 = load ptr, ptr %35, align 8
  %37 = sext i32 %33 to i64
  %38 = getelementptr inbounds i8, ptr %36, i64 %37
  store ptr %38, ptr %35, align 8
  %39 = load ptr, ptr %2, align 8
  %40 = getelementptr inbounds %struct._fcgi_request, ptr %39, i32 0, i32 9
  store ptr null, ptr %40, align 8
  br label %41

41:                                               ; preds = %8, %1
  ret void
}

; Function Attrs: nounwind uwtable
define hidden i32 @fcgi_flush(ptr noundef %0, i32 noundef %1) #0 {
  %3 = alloca i32, align 4
  %4 = alloca ptr, align 8
  %5 = alloca i32, align 4
  %6 = alloca i32, align 4
  %7 = alloca ptr, align 8
  store ptr %0, ptr %4, align 8
  store i32 %1, ptr %5, align 4
  %8 = load ptr, ptr %4, align 8
  call void @close_packet(ptr noundef %8)
  %9 = load ptr, ptr %4, align 8
  %10 = getelementptr inbounds %struct._fcgi_request, ptr %9, i32 0, i32 10
  %11 = load ptr, ptr %10, align 8
  %12 = load ptr, ptr %4, align 8
  %13 = getelementptr inbounds %struct._fcgi_request, ptr %12, i32 0, i32 11
  %14 = getelementptr inbounds [8192 x i8], ptr %13, i64 0, i64 0
  %15 = ptrtoint ptr %11 to i64
  %16 = ptrtoint ptr %14 to i64
  %17 = sub i64 %15, %16
  %18 = trunc i64 %17 to i32
  store i32 %18, ptr %6, align 4
  %19 = load i32, ptr %5, align 4
  %20 = icmp ne i32 %19, 0
  br i1 %20, label %21, label %50

21:                                               ; preds = %2
  %22 = load ptr, ptr %4, align 8
  %23 = getelementptr inbounds %struct._fcgi_request, ptr %22, i32 0, i32 10
  %24 = load ptr, ptr %23, align 8
  store ptr %24, ptr %7, align 8
  %25 = load ptr, ptr %7, align 8
  %26 = getelementptr inbounds %struct._fcgi_end_request_rec, ptr %25, i32 0, i32 0
  %27 = load ptr, ptr %4, align 8
  %28 = getelementptr inbounds %struct._fcgi_request, ptr %27, i32 0, i32 3
  %29 = load i32, ptr %28, align 4
  %30 = call i32 @fcgi_make_header(ptr noundef %26, i32 noundef 3, i32 noundef %29, i32 noundef 8)
  %31 = load ptr, ptr %7, align 8
  %32 = getelementptr inbounds %struct._fcgi_end_request_rec, ptr %31, i32 0, i32 1
  %33 = getelementptr inbounds %struct._fcgi_end_request, ptr %32, i32 0, i32 0
  store i8 0, ptr %33, align 1
  %34 = load ptr, ptr %7, align 8
  %35 = getelementptr inbounds %struct._fcgi_end_request_rec, ptr %34, i32 0, i32 1
  %36 = getelementptr inbounds %struct._fcgi_end_request, ptr %35, i32 0, i32 1
  store i8 0, ptr %36, align 1
  %37 = load ptr, ptr %7, align 8
  %38 = getelementptr inbounds %struct._fcgi_end_request_rec, ptr %37, i32 0, i32 1
  %39 = getelementptr inbounds %struct._fcgi_end_request, ptr %38, i32 0, i32 2
  store i8 0, ptr %39, align 1
  %40 = load ptr, ptr %7, align 8
  %41 = getelementptr inbounds %struct._fcgi_end_request_rec, ptr %40, i32 0, i32 1
  %42 = getelementptr inbounds %struct._fcgi_end_request, ptr %41, i32 0, i32 3
  store i8 0, ptr %42, align 1
  %43 = load ptr, ptr %7, align 8
  %44 = getelementptr inbounds %struct._fcgi_end_request_rec, ptr %43, i32 0, i32 1
  %45 = getelementptr inbounds %struct._fcgi_end_request, ptr %44, i32 0, i32 4
  store i8 0, ptr %45, align 1
  %46 = load i32, ptr %6, align 4
  %47 = sext i32 %46 to i64
  %48 = add i64 %47, 16
  %49 = trunc i64 %48 to i32
  store i32 %49, ptr %6, align 4
  br label %50

50:                                               ; preds = %21, %2
  %51 = load ptr, ptr %4, align 8
  %52 = load ptr, ptr %4, align 8
  %53 = getelementptr inbounds %struct._fcgi_request, ptr %52, i32 0, i32 11
  %54 = getelementptr inbounds [8192 x i8], ptr %53, i64 0, i64 0
  %55 = load i32, ptr %6, align 4
  %56 = sext i32 %55 to i64
  %57 = call i64 @safe_write(ptr noundef %51, ptr noundef %54, i64 noundef %56)
  %58 = load i32, ptr %6, align 4
  %59 = sext i32 %58 to i64
  %60 = icmp ne i64 %57, %59
  br i1 %60, label %61, label %69

61:                                               ; preds = %50
  %62 = load ptr, ptr %4, align 8
  %63 = getelementptr inbounds %struct._fcgi_request, ptr %62, i32 0, i32 4
  store i32 0, ptr %63, align 8
  %64 = load ptr, ptr %4, align 8
  %65 = getelementptr inbounds %struct._fcgi_request, ptr %64, i32 0, i32 11
  %66 = getelementptr inbounds [8192 x i8], ptr %65, i64 0, i64 0
  %67 = load ptr, ptr %4, align 8
  %68 = getelementptr inbounds %struct._fcgi_request, ptr %67, i32 0, i32 10
  store ptr %66, ptr %68, align 8
  store i32 0, ptr %3, align 4
  br label %75

69:                                               ; preds = %50
  %70 = load ptr, ptr %4, align 8
  %71 = getelementptr inbounds %struct._fcgi_request, ptr %70, i32 0, i32 11
  %72 = getelementptr inbounds [8192 x i8], ptr %71, i64 0, i64 0
  %73 = load ptr, ptr %4, align 8
  %74 = getelementptr inbounds %struct._fcgi_request, ptr %73, i32 0, i32 10
  store ptr %72, ptr %74, align 8
  store i32 1, ptr %3, align 4
  br label %75

75:                                               ; preds = %69, %61
  %76 = load i32, ptr %3, align 4
  ret i32 %76
}