; Function Attrs: nofree nounwind uwtable
define hidden noundef i32 @fcgi_flush(ptr noundef %0, i32 noundef %1) local_unnamed_addr #22 {
  %3 = getelementptr inbounds i8, ptr %0, i64 40
  %4 = load ptr, ptr %3, align 8
  %.not.i = icmp eq ptr %4, null
  %.phi.trans.insert = getelementptr inbounds i8, ptr %0, i64 48
  %.pre = load ptr, ptr %.phi.trans.insert, align 8
  br i1 %.not.i, label %close_packet.exit, label %5

5:                                                ; preds = %2
  %6 = getelementptr inbounds i8, ptr %4, i64 8
  %7 = ptrtoint ptr %.pre to i64
  %8 = ptrtoint ptr %6 to i64
  %9 = sub i64 %7, %8
  %10 = trunc i64 %9 to i32
  %11 = getelementptr inbounds i8, ptr %0, i64 12
  %12 = load i32, ptr %11, align 4
  %13 = add nsw i32 %10, 7
  %14 = and i32 %13, -8
  %15 = sub nsw i32 %14, %10
  %16 = trunc i64 %9 to i8
  %17 = getelementptr inbounds i8, ptr %4, i64 5
  store i8 %16, ptr %17, align 1
  %18 = lshr i64 %9, 8
  %19 = trunc i64 %18 to i8
  %20 = getelementptr inbounds i8, ptr %4, i64 4
  store i8 %19, ptr %20, align 1
  %21 = trunc i32 %15 to i8
  %22 = getelementptr inbounds i8, ptr %4, i64 6
  store i8 %21, ptr %22, align 1
  %23 = trunc i32 %12 to i8
  %24 = getelementptr inbounds i8, ptr %4, i64 3
  store i8 %23, ptr %24, align 1
  %25 = lshr i32 %12, 8
  %26 = trunc i32 %25 to i8
  %27 = getelementptr inbounds i8, ptr %4, i64 2
  store i8 %26, ptr %27, align 1
  %28 = getelementptr inbounds i8, ptr %4, i64 7
  store i8 0, ptr %28, align 1
  store i8 1, ptr %4, align 1
  %.not.i.i = icmp eq i32 %14, %10
  br i1 %.not.i.i, label %.fcgi_make_header.exit_crit_edge.i, label %29

.fcgi_make_header.exit_crit_edge.i:               ; preds = %5
  %.pre.i = sext i32 %15 to i64
  br label %fcgi_make_header.exit.i

29:                                               ; preds = %5
  %sext.i = shl i64 %9, 32
  %30 = ashr exact i64 %sext.i, 32
  %31 = getelementptr inbounds i8, ptr %6, i64 %30
  %32 = sext i32 %15 to i64
  tail call void @llvm.memset.p0.i64(ptr nonnull align 1 %31, i8 0, i64 %32, i1 false)
  br label %fcgi_make_header.exit.i

fcgi_make_header.exit.i:                          ; preds = %29, %.fcgi_make_header.exit_crit_edge.i
  %.pre-phi.i = phi i64 [ %.pre.i, %.fcgi_make_header.exit_crit_edge.i ], [ %32, %29 ]
  %33 = load ptr, ptr %.phi.trans.insert, align 8
  %34 = getelementptr inbounds i8, ptr %33, i64 %.pre-phi.i
  store ptr %34, ptr %.phi.trans.insert, align 8
  store ptr null, ptr %3, align 8
  br label %close_packet.exit

close_packet.exit:                                ; preds = %2, %fcgi_make_header.exit.i
  %35 = phi ptr [ %34, %fcgi_make_header.exit.i ], [ %.pre, %2 ]
  %36 = getelementptr inbounds i8, ptr %0, i64 56
  %37 = ptrtoint ptr %35 to i64
  %38 = ptrtoint ptr %36 to i64
  %39 = sub i64 %37, %38
  %.not = icmp eq i32 %1, 0
  br i1 %.not, label %52, label %40

40:                                               ; preds = %close_packet.exit
  %41 = getelementptr inbounds i8, ptr %0, i64 12
  %42 = load i32, ptr %41, align 4
  %43 = getelementptr inbounds i8, ptr %35, i64 4
  %44 = trunc i32 %42 to i8
  %45 = getelementptr inbounds i8, ptr %35, i64 3
  store i8 %44, ptr %45, align 1
  %46 = lshr i32 %42, 8
  %47 = trunc i32 %46 to i8
  %48 = getelementptr inbounds i8, ptr %35, i64 2
  store i8 %47, ptr %48, align 1
  store <4 x i8> <i8 0, i8 8, i8 0, i8 0>, ptr %43, align 1
  %49 = getelementptr inbounds i8, ptr %35, i64 1
  store i8 3, ptr %49, align 1
  store i8 1, ptr %35, align 1
  %50 = getelementptr inbounds i8, ptr %35, i64 8
  %51 = add i64 %39, 16
  tail call void @llvm.memset.p0.i64(ptr noundef nonnull align 1 dereferenceable(5) %50, i8 0, i64 5, i1 false)
  br label %52

52:                                               ; preds = %40, %close_packet.exit
  %.022 = phi i64 [ %51, %40 ], [ %39, %close_packet.exit ]
  %sext = shl i64 %.022, 32
  %53 = ashr exact i64 %sext, 32
  %54 = tail call ptr @__errno_location() #34
  %55 = getelementptr inbounds i8, ptr %0, i64 8
  br label %56

56:                                               ; preds = %68, %52
  %.0.i = phi i64 [ 0, %52 ], [ %.1.i, %68 ]
  store i32 0, ptr %54, align 4
  %57 = load i32, ptr %55, align 8
  %58 = getelementptr inbounds i8, ptr %36, i64 %.0.i
  %59 = sub i64 %53, %.0.i
  %60 = tail call i64 @write(i32 noundef %57, ptr noundef nonnull %58, i64 noundef %59) #32
  %61 = trunc i64 %60 to i32
  %62 = icmp sgt i32 %61, 0
  br i1 %62, label %63, label %66

63:                                               ; preds = %56
  %64 = and i64 %60, 4294967295
  %65 = add i64 %64, %.0.i
  br label %68

66:                                               ; preds = %56
  %67 = load i32, ptr %54, align 4
  switch i32 %67, label %safe_write.exit [
    i32 0, label %68
    i32 4, label %68
  ]

68:                                               ; preds = %66, %66, %63
  %.1.i = phi i64 [ %65, %63 ], [ %.0.i, %66 ], [ %.0.i, %66 ]
  %.not18.i = icmp eq i64 %.1.i, %53
  br i1 %.not18.i, label %safe_write.exit.thread, label %56

safe_write.exit:                                  ; preds = %66
  %sext.i24 = shl i64 %60, 32
  %.not23 = icmp eq i64 %sext.i24, %sext
  br i1 %.not23, label %safe_write.exit.thread, label %69

69:                                               ; preds = %safe_write.exit
  %70 = getelementptr inbounds i8, ptr %0, i64 16
  store i32 0, ptr %70, align 8
  br label %safe_write.exit.thread

safe_write.exit.thread:                           ; preds = %68, %safe_write.exit, %69
  %.0 = phi i32 [ 0, %69 ], [ 1, %safe_write.exit ], [ 1, %68 ]
  %71 = getelementptr inbounds i8, ptr %0, i64 48
  store ptr %36, ptr %71, align 8
  ret i32 %.0
}